; Function Attrs: mustprogress uwtable
define dso_local noundef nonnull align 8 dereferenceable(144) ptr @_ZN7doctest6detail8TestCaseaSERKS1_(ptr noundef nonnull returned align 8 dereferenceable(144) %0, ptr noundef nonnull readonly align 8 dereferenceable(144) %1) local_unnamed_addr #8 align 2 {
  %.not.i.i = icmp eq ptr %0, %1
  br i1 %.not.i.i, label %_ZN7doctest6StringaSERKS0_.exit, label %3

3:                                                ; preds = %2
  %4 = getelementptr inbounds nuw i8, ptr %0, i64 23
  %5 = load i8, ptr %4, align 1, !tbaa !38
  %6 = icmp sgt i8 %5, -1
  br i1 %6, label %11, label %7

7:                                                ; preds = %3
  %8 = load ptr, ptr %0, align 8, !tbaa !38
  %9 = icmp eq ptr %8, null
  br i1 %9, label %11, label %10

10:                                               ; preds = %7
  tail call void @_ZdaPv(ptr noundef nonnull %8) #48
  br label %11

11:                                               ; preds = %10, %7, %3
  %12 = getelementptr inbounds nuw i8, ptr %1, i64 23
  %13 = load i8, ptr %12, align 1, !tbaa !38
  %14 = icmp sgt i8 %13, -1
  br i1 %14, label %15, label %16

15:                                               ; preds = %11
  tail call void @llvm.memcpy.p0.p0.i64(ptr noundef nonnull align 8 dereferenceable(80) %0, ptr noundef nonnull readonly align 8 dereferenceable(80) %1, i64 24, i1 false)
  br label %36

16:                                               ; preds = %11
  %17 = getelementptr inbounds nuw i8, ptr %1, i64 8
  %18 = load i32, ptr %17, align 8, !tbaa !38
  %19 = icmp ult i32 %18, 24
  br i1 %19, label %20, label %25

20:                                               ; preds = %16
  %21 = zext nneg i32 %18 to i64
  %22 = getelementptr inbounds nuw [24 x i8], ptr %0, i64 0, i64 %21
  store i8 0, ptr %22, align 1, !tbaa !38
  %23 = trunc nuw i32 %18 to i8
  %24 = sub nuw nsw i8 23, %23
  store i8 %24, ptr %4, align 1, !tbaa !38
  br label %_ZN7doctest6String8allocateEj.exit.i.i.i

25:                                               ; preds = %16
  store i8 -128, ptr %4, align 1, !tbaa !38
  %26 = getelementptr inbounds nuw i8, ptr %0, i64 8
  store i32 %18, ptr %26, align 8, !tbaa !38
  %27 = add i32 %18, 1
  %28 = getelementptr inbounds nuw i8, ptr %0, i64 12
  store i32 %27, ptr %28, align 4, !tbaa !38
  %29 = zext i32 %27 to i64
  %30 = tail call noalias noundef nonnull ptr @_Znam(i64 noundef %29) #51
  store ptr %30, ptr %0, align 8, !tbaa !38
  %31 = zext i32 %18 to i64
  %32 = getelementptr inbounds nuw i8, ptr %30, i64 %31
  store i8 0, ptr %32, align 1, !tbaa !38
  br label %_ZN7doctest6String8allocateEj.exit.i.i.i

_ZN7doctest6String8allocateEj.exit.i.i.i:         ; preds = %25, %20
  %.0.i.i.i.i = phi ptr [ %0, %20 ], [ %30, %25 ]
  %33 = load ptr, ptr %1, align 8, !tbaa !38
  %34 = load i32, ptr %17, align 8, !tbaa !38
  %35 = zext i32 %34 to i64
  tail call void @llvm.memcpy.p0.p0.i64(ptr nonnull align 1 %.0.i.i.i.i, ptr align 1 %33, i64 %35, i1 false)
  br label %36

36:                                               ; preds = %15, %_ZN7doctest6String8allocateEj.exit.i.i.i
  %37 = getelementptr inbounds nuw i8, ptr %0, i64 24
  %38 = getelementptr inbounds nuw i8, ptr %1, i64 24
  tail call void @llvm.memcpy.p0.p0.i64(ptr noundef nonnull align 8 dereferenceable(56) %37, ptr noundef nonnull align 8 dereferenceable(56) %38, i64 56, i1 false)
  %39 = getelementptr inbounds nuw i8, ptr %1, i64 80
  %40 = load ptr, ptr %39, align 8, !tbaa !224
  %41 = getelementptr inbounds nuw i8, ptr %0, i64 80
  store ptr %40, ptr %41, align 8, !tbaa !224
  %42 = getelementptr inbounds nuw i8, ptr %1, i64 88
  %43 = getelementptr inbounds nuw i8, ptr %0, i64 88
  %44 = getelementptr inbounds nuw i8, ptr %0, i64 111
  %45 = load i8, ptr %44, align 1, !tbaa !38
  %46 = icmp sgt i8 %45, -1
  br i1 %46, label %51, label %47

47:                                               ; preds = %36
  %48 = load ptr, ptr %43, align 8, !tbaa !38
  %49 = icmp eq ptr %48, null
  br i1 %49, label %51, label %50

50:                                               ; preds = %47
  tail call void @_ZdaPv(ptr noundef nonnull %48) #48
  br label %51

51:                                               ; preds = %50, %47, %36
  %52 = getelementptr inbounds nuw i8, ptr %1, i64 111
  %53 = load i8, ptr %52, align 1, !tbaa !38
  %54 = icmp sgt i8 %53, -1
  br i1 %54, label %55, label %56

55:                                               ; preds = %51
  tail call void @llvm.memcpy.p0.p0.i64(ptr noundef nonnull align 8 dereferenceable(24) %43, ptr noundef nonnull readonly align 8 dereferenceable(24) %42, i64 24, i1 false)
  br label %85

56:                                               ; preds = %51
  %57 = getelementptr inbounds nuw i8, ptr %1, i64 96
  %58 = load i32, ptr %57, align 8, !tbaa !38
  %59 = icmp ult i32 %58, 24
  br i1 %59, label %60, label %65

60:                                               ; preds = %56
  %61 = zext nneg i32 %58 to i64
  %62 = getelementptr inbounds nuw [24 x i8], ptr %43, i64 0, i64 %61
  store i8 0, ptr %62, align 1, !tbaa !38
  %63 = trunc nuw i32 %58 to i8
  %64 = sub nuw nsw i8 23, %63
  store i8 %64, ptr %44, align 1, !tbaa !38
  br label %_ZN7doctest6String8allocateEj.exit.i.i

65:                                               ; preds = %56
  store i8 -128, ptr %44, align 1, !tbaa !38
  %66 = getelementptr inbounds nuw i8, ptr %0, i64 96
  store i32 %58, ptr %66, align 8, !tbaa !38
  %67 = add i32 %58, 1
  %68 = getelementptr inbounds nuw i8, ptr %0, i64 100
  store i32 %67, ptr %68, align 4, !tbaa !38
  %69 = zext i32 %67 to i64
  %70 = tail call noalias noundef nonnull ptr @_Znam(i64 noundef %69) #51
  store ptr %70, ptr %43, align 8, !tbaa !38
  %71 = zext i32 %58 to i64
  %72 = getelementptr inbounds nuw i8, ptr %70, i64 %71
  store i8 0, ptr %72, align 1, !tbaa !38
  br label %_ZN7doctest6String8allocateEj.exit.i.i

_ZN7doctest6String8allocateEj.exit.i.i:           ; preds = %65, %60
  %.0.i.i.i = phi ptr [ %43, %60 ], [ %70, %65 ]
  %73 = load ptr, ptr %42, align 8, !tbaa !38
  %74 = load i32, ptr %57, align 8, !tbaa !38
  %75 = zext i32 %74 to i64
  tail call void @llvm.memcpy.p0.p0.i64(ptr nonnull align 1 %.0.i.i.i, ptr align 1 %73, i64 %75, i1 false)
  br label %85

_ZN7doctest6StringaSERKS0_.exit:                  ; preds = %2
  %76 = getelementptr inbounds nuw i8, ptr %0, i64 24
  %77 = getelementptr inbounds nuw i8, ptr %1, i64 24
  tail call void @llvm.memcpy.p0.p0.i64(ptr noundef nonnull align 8 dereferenceable(56) %76, ptr noundef nonnull align 8 dereferenceable(56) %77, i64 56, i1 false)
  %78 = getelementptr inbounds nuw i8, ptr %1, i64 80
  %79 = load ptr, ptr %78, align 8, !tbaa !224
  %80 = getelementptr inbounds nuw i8, ptr %0, i64 80
  store ptr %79, ptr %80, align 8, !tbaa !224
  %81 = getelementptr inbounds nuw i8, ptr %1, i64 112
  %82 = load i32, ptr %81, align 8, !tbaa !226
  %83 = getelementptr inbounds nuw i8, ptr %0, i64 112
  store i32 %82, ptr %83, align 8, !tbaa !226
  %84 = getelementptr inbounds nuw i8, ptr %0, i64 120
  br label %_ZN7doctest6StringaSERKS0_.exit9

85:                                               ; preds = %55, %_ZN7doctest6String8allocateEj.exit.i.i
  %86 = getelementptr inbounds nuw i8, ptr %1, i64 112
  %87 = load i32, ptr %86, align 8, !tbaa !226
  %88 = getelementptr inbounds nuw i8, ptr %0, i64 112
  store i32 %87, ptr %88, align 8, !tbaa !226
  %89 = getelementptr inbounds nuw i8, ptr %1, i64 120
  %90 = getelementptr inbounds nuw i8, ptr %0, i64 120
  %91 = getelementptr inbounds nuw i8, ptr %0, i64 143
  %92 = load i8, ptr %91, align 1, !tbaa !38
  %93 = icmp sgt i8 %92, -1
  br i1 %93, label %98, label %94

94:                                               ; preds = %85
  %95 = load ptr, ptr %90, align 8, !tbaa !38
  %96 = icmp eq ptr %95, null
  br i1 %96, label %98, label %97

97:                                               ; preds = %94
  tail call void @_ZdaPv(ptr noundef nonnull %95) #48
  br label %98

98:                                               ; preds = %97, %94, %85
  %99 = getelementptr inbounds nuw i8, ptr %1, i64 143
  %100 = load i8, ptr %99, align 1, !tbaa !38
  %101 = icmp sgt i8 %100, -1
  br i1 %101, label %102, label %103

102:                                              ; preds = %98
  tail call void @llvm.memcpy.p0.p0.i64(ptr noundef nonnull align 8 dereferenceable(24) %90, ptr noundef nonnull readonly align 8 dereferenceable(24) %89, i64 24, i1 false)
  br label %_ZN7doctest6StringaSERKS0_.exit9thread-pre-split

103:                                              ; preds = %98
  %104 = getelementptr inbounds nuw i8, ptr %1, i64 128
  %105 = load i32, ptr %104, align 8, !tbaa !38
  %106 = icmp ult i32 %105, 24
  br i1 %106, label %107, label %112

107:                                              ; preds = %103
  %108 = zext nneg i32 %105 to i64
  %109 = getelementptr inbounds nuw [24 x i8], ptr %90, i64 0, i64 %108
  store i8 0, ptr %109, align 1, !tbaa !38
  %110 = trunc nuw i32 %105 to i8
  %111 = sub nuw nsw i8 23, %110
  store i8 %111, ptr %91, align 1, !tbaa !38
  br label %_ZN7doctest6String8allocateEj.exit.i.i7

112:                                              ; preds = %103
  store i8 -128, ptr %91, align 1, !tbaa !38
  %113 = getelementptr inbounds nuw i8, ptr %0, i64 128
  store i32 %105, ptr %113, align 8, !tbaa !38
  %114 = add i32 %105, 1
  %115 = getelementptr inbounds nuw i8, ptr %0, i64 132
  store i32 %114, ptr %115, align 4, !tbaa !38
  %116 = zext i32 %114 to i64
  %117 = tail call noalias noundef nonnull ptr @_Znam(i64 noundef %116) #51
  store ptr %117, ptr %90, align 8, !tbaa !38
  %118 = zext i32 %105 to i64
  %119 = getelementptr inbounds nuw i8, ptr %117, i64 %118
  store i8 0, ptr %119, align 1, !tbaa !38
  br label %_ZN7doctest6String8allocateEj.exit.i.i7

_ZN7doctest6String8allocateEj.exit.i.i7:          ; preds = %112, %107
  %.0.i.i.i8 = phi ptr [ %90, %107 ], [ %117, %112 ]
  %120 = load ptr, ptr %89, align 8, !tbaa !38
  %121 = load i32, ptr %104, align 8, !tbaa !38
  %122 = zext i32 %121 to i64
  tail call void @llvm.memcpy.p0.p0.i64(ptr nonnull align 1 %.0.i.i.i8, ptr align 1 %120, i64 %122, i1 false)
  br label %_ZN7doctest6StringaSERKS0_.exit9thread-pre-split

_ZN7doctest6StringaSERKS0_.exit9thread-pre-split: ; preds = %_ZN7doctest6String8allocateEj.exit.i.i7, %102
  %.pr = load i32, ptr %88, align 8, !tbaa !226
  br label %_ZN7doctest6StringaSERKS0_.exit9

_ZN7doctest6StringaSERKS0_.exit9:                 ; preds = %_ZN7doctest6StringaSERKS0_.exit, %_ZN7doctest6StringaSERKS0_.exit9thread-pre-split
  %123 = phi ptr [ %90, %_ZN7doctest6StringaSERKS0_.exit9thread-pre-split ], [ %84, %_ZN7doctest6StringaSERKS0_.exit ]
  %124 = phi i32 [ %.pr, %_ZN7doctest6StringaSERKS0_.exit9thread-pre-split ], [ %82, %_ZN7doctest6StringaSERKS0_.exit ]
  %.not = icmp eq i32 %124, -1
  br i1 %.not, label %131, label %125

125:                                              ; preds = %_ZN7doctest6StringaSERKS0_.exit9
  %126 = getelementptr inbounds nuw i8, ptr %0, i64 143
  %127 = load i8, ptr %126, align 1, !tbaa !38
  %128 = load ptr, ptr %123, align 8
  %129 = icmp slt i8 %127, 0
  %.0.i = select i1 %129, ptr %128, ptr %123
  %130 = getelementptr inbounds nuw i8, ptr %0, i64 32
  store ptr %.0.i, ptr %130, align 8, !tbaa !206
  br label %131

131:                                              ; preds = %125, %_ZN7doctest6StringaSERKS0_.exit9
  ret ptr %0
}